target datalayout = "e-m:e-p270:32:32-p271:32:32-p272:64:64-i64:64-i128:128-f80:128-n8:16:32:64-S128"
target triple = "x86_64-pc-linux-gnu"

@.str = private unnamed_addr constant [14 x i8] c"mac-nr-framed\00", align 1
@.str.1 = private unnamed_addr constant [14 x i8] c"MAC-NR-FRAMED\00", align 1
@proto_mac_nr_framed = internal global i32 0, align 4
@.str.2 = private unnamed_addr constant [7 x i8] c"mac-nr\00", align 1
@proto_mac_nr = external global i32, align 4

; Function Attrs: null_pointer_is_valid sspstrong uwtable
define hidden void @proto_register_mac_nr_framed() #0 {
  %1 = call i32 @proto_register_protocol(ptr noundef @.str, ptr noundef @.str.1, ptr noundef @.str)
  store i32 %1, ptr @proto_mac_nr_framed, align 4
  %2 = load i32, ptr @proto_mac_nr_framed, align 4
  %3 = call ptr @register_dissector(ptr noundef @.str, ptr noundef @dissect_mac_nr_framed, i32 noundef %2)
  ret void
}

; Function Attrs: null_pointer_is_valid
declare i32 @proto_register_protocol(ptr noundef, ptr noundef, ptr noundef) #1

; Function Attrs: null_pointer_is_valid
declare ptr @register_dissector(ptr noundef, ptr noundef, i32 noundef) #1

; Function Attrs: null_pointer_is_valid sspstrong uwtable
define internal i32 @dissect_mac_nr_framed(ptr noundef %0, ptr noundef %1, ptr noundef %2, ptr noundef %3) #0 {
  %5 = alloca i32, align 4
  %6 = alloca ptr, align 8
  %7 = alloca ptr, align 8
  %8 = alloca ptr, align 8
  %9 = alloca ptr, align 8
  %10 = alloca i32, align 4
  %11 = alloca ptr, align 8
  %12 = alloca ptr, align 8
  %13 = alloca i8, align 1
  %14 = alloca ptr, align 8
  %15 = alloca i32, align 4
  store ptr %0, ptr %6, align 8
  store ptr %1, ptr %7, align 8
  store ptr %2, ptr %8, align 8
  store ptr %3, ptr %9, align 8
  call void @llvm.lifetime.start.p0(i64 4, ptr %10) #4
  store i32 0, ptr %10, align 4
  call void @llvm.lifetime.start.p0(i64 8, ptr %11) #4
  call void @llvm.lifetime.start.p0(i64 8, ptr %12) #4
  call void @llvm.lifetime.start.p0(i64 1, ptr %13) #4
  store i8 0, ptr %13, align 1
  call void @llvm.lifetime.start.p0(i64 8, ptr %14) #4
  %16 = call ptr @find_dissector(ptr noundef @.str.2)
  store ptr %16, ptr %14, align 8
  %17 = load ptr, ptr %14, align 8
  %18 = icmp ne ptr %17, null
  br i1 %18, label %20, label %19

19:                                               ; preds = %4
  store i32 0, ptr %5, align 4
  store i32 1, ptr %15, align 4
  br label %65

20:                                               ; preds = %4
  %21 = load ptr, ptr %6, align 8
  %22 = load i32, ptr %10, align 4
  %23 = call i32 @tvb_reported_length_remaining(ptr noundef %21, i32 noundef %22)
  %24 = sext i32 %23 to i64
  %25 = icmp ult i64 %24, 5
  br i1 %25, label %26, label %27

26:                                               ; preds = %20
  store i32 5, ptr %5, align 4
  store i32 1, ptr %15, align 4
  br label %65

27:                                               ; preds = %20
  %28 = call ptr @wmem_file_scope()
  %29 = load ptr, ptr %7, align 8
  %30 = load i32, ptr @proto_mac_nr, align 4
  %31 = call ptr @p_get_proto_data(ptr noundef %28, ptr noundef %29, i32 noundef %30, i32 noundef 0)
  store ptr %31, ptr %11, align 8
  %32 = load ptr, ptr %11, align 8
  %33 = icmp eq ptr %32, null
  br i1 %33, label %34, label %37

34:                                               ; preds = %27
  %35 = call ptr @wmem_file_scope()
  %36 = call noalias ptr @wmem_alloc0(ptr noundef %35, i64 noundef 18) #5
  store ptr %36, ptr %11, align 8
  br label %38

37:                                               ; preds = %27
  store i8 1, ptr %13, align 1
  br label %38

38:                                               ; preds = %37, %34
  %39 = load ptr, ptr %11, align 8
  %40 = load ptr, ptr %6, align 8
  %41 = load ptr, ptr %7, align 8
  %42 = load ptr, ptr %8, align 8
  %43 = call zeroext i1 @dissect_mac_nr_context_fields(ptr noundef %39, ptr noundef %40, ptr noundef %41, ptr noundef %42, ptr noundef %10)
  br i1 %43, label %46, label %44

44:                                               ; preds = %38
  %45 = load i32, ptr %10, align 4
  store i32 %45, ptr %5, align 4
  store i32 1, ptr %15, align 4
  br label %65

46:                                               ; preds = %38
  %47 = load i8, ptr %13, align 1, !range !6, !noundef !7
  %48 = trunc i8 %47 to i1
  br i1 %48, label %54, label %49

49:                                               ; preds = %46
  %50 = call ptr @wmem_file_scope()
  %51 = load ptr, ptr %7, align 8
  %52 = load i32, ptr @proto_mac_nr, align 4
  %53 = load ptr, ptr %11, align 8
  call void @p_add_proto_data(ptr noundef %50, ptr noundef %51, i32 noundef %52, i32 noundef 0, ptr noundef %53)
  br label %54

54:                                               ; preds = %49, %46
  %55 = load ptr, ptr %6, align 8
  %56 = load i32, ptr %10, align 4
  %57 = call ptr @tvb_new_subset_remaining(ptr noundef %55, i32 noundef %56)
  store ptr %57, ptr %12, align 8
  %58 = load ptr, ptr %14, align 8
  %59 = load ptr, ptr %12, align 8
  %60 = load ptr, ptr %7, align 8
  %61 = load ptr, ptr %8, align 8
  %62 = call i32 @call_dissector_only(ptr noundef %58, ptr noundef %59, ptr noundef %60, ptr noundef %61, ptr noundef null)
  %63 = load ptr, ptr %6, align 8
  %64 = call i32 @tvb_captured_length(ptr noundef %63)
  store i32 %64, ptr %5, align 4
  store i32 1, ptr %15, align 4
  br label %65

65:                                               ; preds = %54, %44, %26, %19
  call void @llvm.lifetime.end.p0(i64 8, ptr %14) #4
  call void @llvm.lifetime.end.p0(i64 1, ptr %13) #4
  call void @llvm.lifetime.end.p0(i64 8, ptr %12) #4
  call void @llvm.lifetime.end.p0(i64 8, ptr %11) #4
  call void @llvm.lifetime.end.p0(i64 4, ptr %10) #4
  %66 = load i32, ptr %5, align 4
  ret i32 %66
}

; Function Attrs: nocallback nofree nosync nounwind willreturn memory(argmem: readwrite)
declare void @llvm.lifetime.start.p0(i64 immarg, ptr captures(none)) #2

; Function Attrs: null_pointer_is_valid
declare ptr @find_dissector(ptr noundef) #1

; Function Attrs: null_pointer_is_valid
declare i32 @tvb_reported_length_remaining(ptr noundef, i32 noundef) #1

; Function Attrs: null_pointer_is_valid
declare ptr @p_get_proto_data(ptr noundef, ptr noundef, i32 noundef, i32 noundef) #1

; Function Attrs: null_pointer_is_valid
declare ptr @wmem_file_scope() #1

; Function Attrs: null_pointer_is_valid allocsize(1)
declare noalias ptr @wmem_alloc0(ptr noundef, i64 noundef) #3

; Function Attrs: null_pointer_is_valid
declare zeroext i1 @dissect_mac_nr_context_fields(ptr noundef, ptr noundef, ptr noundef, ptr noundef, ptr noundef) #1

; Function Attrs: null_pointer_is_valid
declare void @p_add_proto_data(ptr noundef, ptr noundef, i32 noundef, i32 noundef, ptr noundef) #1

; Function Attrs: null_pointer_is_valid
declare ptr @tvb_new_subset_remaining(ptr noundef, i32 noundef) #1

; Function Attrs: null_pointer_is_valid
declare i32 @call_dissector_only(ptr noundef, ptr noundef, ptr noundef, ptr noundef, ptr noundef) #1

; Function Attrs: null_pointer_is_valid
declare i32 @tvb_captured_length(ptr noundef) #1

; Function Attrs: nocallback nofree nosync nounwind willreturn memory(argmem: readwrite)
declare void @llvm.lifetime.end.p0(i64 immarg, ptr captures(none)) #2


!llvm.module.flags = !{!0, !1, !2, !3, !4, !5}

!0 = !{i32 1, !"wchar_size", i32 4}
!1 = !{i32 8, !"cf-protection-return", i32 1}
!2 = !{i32 8, !"cf-protection-branch", i32 1}
!3 = !{i32 4, !"probe-stack", !"inline-asm"}
!4 = !{i32 8, !"PIC Level", i32 2}
!5 = !{i32 7, !"uwtable", i32 2}
!6 = !{i8 0, i8 2}
!7 = !{}
